; ModuleID = '22/392.c'
source_filename = "22/392.c"
target datalayout = "e-m:e-p270:32:32-p271:32:32-p272:64:64-i64:64-f80:128-n8:16:32:64-S128"
target triple = "x86_64-pc-linux-gnu"

@.str = private unnamed_addr constant [3 x i8] c"%d\00", align 1
@n = common dso_local global [300 x i32] zeroinitializer, align 16
@.str.1 = private unnamed_addr constant [3 x i8] c"No\00", align 1

; Function Attrs: noinline nounwind uwtable
define dso_local i32 @main() #0 {
  %1 = alloca i32, align 4
  %2 = alloca i32, align 4
  %3 = alloca i32, align 4
  %4 = alloca i32, align 4
  %5 = alloca i32, align 4
  store i32 0, i32* %1, align 4
  store i32 1, i32* %3, align 4
  store i32 0, i32* %4, align 4
  %6 = call i32 (i8*, ...) @__isoc99_scanf(i8* getelementptr inbounds ([3 x i8], [3 x i8]* @.str, i64 0, i64 0), i32* getelementptr inbounds ([300 x i32], [300 x i32]* @n, i64 0, i64 0))
  br label %7

7:                                                ; preds = %10, %0
  %8 = call i32 @getchar()
  %9 = icmp eq i32 %8, 44
  br i1 %9, label %10, label %17

10:                                               ; preds = %7
  %11 = load i32, i32* %3, align 4
  %12 = sext i32 %11 to i64
  %13 = getelementptr inbounds [300 x i32], [300 x i32]* @n, i64 0, i64 %12
  %14 = call i32 (i8*, ...) @__isoc99_scanf(i8* getelementptr inbounds ([3 x i8], [3 x i8]* @.str, i64 0, i64 0), i32* %13)
  %15 = load i32, i32* %3, align 4
  %16 = add nsw i32 %15, 1
  store i32 %16, i32* %3, align 4
  br label %7

17:                                               ; preds = %7
  store i32 0, i32* %2, align 4
  br label %18

18:                                               ; preds = %35, %17
  %19 = load i32, i32* %2, align 4
  %20 = load i32, i32* %3, align 4
  %21 = icmp slt i32 %19, %20
  br i1 %21, label %22, label %38

22:                                               ; preds = %18
  %23 = load i32, i32* %2, align 4
  %24 = sext i32 %23 to i64
  %25 = getelementptr inbounds [300 x i32], [300 x i32]* @n, i64 0, i64 %24
  %26 = load i32, i32* %25, align 4
  %27 = load i32, i32* %4, align 4
  %28 = icmp sgt i32 %26, %27
  br i1 %28, label %29, label %34

29:                                               ; preds = %22
  %30 = load i32, i32* %2, align 4
  %31 = sext i32 %30 to i64
  %32 = getelementptr inbounds [300 x i32], [300 x i32]* @n, i64 0, i64 %31
  %33 = load i32, i32* %32, align 4
  store i32 %33, i32* %4, align 4
  br label %34

34:                                               ; preds = %29, %22
  br label %35

35:                                               ; preds = %34
  %36 = load i32, i32* %2, align 4
  %37 = add nsw i32 %36, 1
  store i32 %37, i32* %2, align 4
  br label %18

38:                                               ; preds = %18
  %39 = load i32, i32* %4, align 4
  store i32 %39, i32* %5, align 4
  store i32 0, i32* %4, align 4
  store i32 0, i32* %2, align 4
  br label %40

40:                                               ; preds = %56, %38
  %41 = load i32, i32* %2, align 4
  %42 = load i32, i32* %3, align 4
  %43 = icmp slt i32 %41, %42
  br i1 %43, label %44, label %59

44:                                               ; preds = %40
  %45 = load i32, i32* %2, align 4
  %46 = sext i32 %45 to i64
  %47 = getelementptr inbounds [300 x i32], [300 x i32]* @n, i64 0, i64 %46
  %48 = load i32, i32* %47, align 4
  %49 = load i32, i32* %5, align 4
  %50 = icmp eq i32 %48, %49
  br i1 %50, label %51, label %55

51:                                               ; preds = %44
  %52 = load i32, i32* %2, align 4
  %53 = sext i32 %52 to i64
  %54 = getelementptr inbounds [300 x i32], [300 x i32]* @n, i64 0, i64 %53
  store i32 0, i32* %54, align 4
  br label %55

55:                                               ; preds = %51, %44
  br label %56

56:                                               ; preds = %55
  %57 = load i32, i32* %2, align 4
  %58 = add nsw i32 %57, 1
  store i32 %58, i32* %2, align 4
  br label %40

59:                                               ; preds = %40
  store i32 0, i32* %2, align 4
  br label %60

60:                                               ; preds = %77, %59
  %61 = load i32, i32* %2, align 4
  %62 = load i32, i32* %3, align 4
  %63 = icmp slt i32 %61, %62
  br i1 %63, label %64, label %80

64:                                               ; preds = %60
  %65 = load i32, i32* %2, align 4
  %66 = sext i32 %65 to i64
  %67 = getelementptr inbounds [300 x i32], [300 x i32]* @n, i64 0, i64 %66
  %68 = load i32, i32* %67, align 4
  %69 = load i32, i32* %4, align 4
  %70 = icmp sgt i32 %68, %69
  br i1 %70, label %71, label %76

71:                                               ; preds = %64
  %72 = load i32, i32* %2, align 4
  %73 = sext i32 %72 to i64
  %74 = getelementptr inbounds [300 x i32], [300 x i32]* @n, i64 0, i64 %73
  %75 = load i32, i32* %74, align 4
  store i32 %75, i32* %4, align 4
  br label %76

76:                                               ; preds = %71, %64
  br label %77

77:                                               ; preds = %76
  %78 = load i32, i32* %2, align 4
  %79 = add nsw i32 %78, 1
  store i32 %79, i32* %2, align 4
  br label %60

80:                                               ; preds = %60
  %81 = load i32, i32* %4, align 4
  %82 = icmp eq i32 %81, 0
  br i1 %82, label %83, label %85

83:                                               ; preds = %80
  %84 = call i32 (i8*, ...) @printf(i8* getelementptr inbounds ([3 x i8], [3 x i8]* @.str.1, i64 0, i64 0))
  br label %88

85:                                               ; preds = %80
  %86 = load i32, i32* %4, align 4
  %87 = call i32 (i8*, ...) @printf(i8* getelementptr inbounds ([3 x i8], [3 x i8]* @.str, i64 0, i64 0), i32 %86)
  br label %88

88:                                               ; preds = %85, %83
  ret i32 0
}

declare dso_local i32 @__isoc99_scanf(i8*, ...) #1

declare dso_local i32 @getchar() #1

declare dso_local i32 @printf(i8*, ...) #1


!llvm.module.flags = !{!0}
!llvm.ident = !{!1}

!0 = !{i32 1, !"wchar_size", i32 4}
!1 = !{!"clang version 10.0.0-4ubuntu1 "}
